target datalayout = "e-m:e-p270:32:32-p271:32:32-p272:64:64-i64:64-i128:128-f80:128-n8:16:32:64-S128"
target triple = "x86_64-pc-linux-gnu"

%"struct.open_spiel::y_game::Move" = type { i8, i8, i16 }
%"class.std::shared_ptr" = type { %"class.std::__shared_ptr" }
%"class.std::__shared_ptr" = type { ptr, %"class.std::__shared_count" }
%"class.std::__shared_count" = type { ptr }
%"struct.open_spiel::y_game::YState::Cell" = type <{ i8, i8, i16, i16, i8, i8 }>
%"class.open_spiel::y_game::YState" = type <{ %"class.open_spiel::State.base", [4 x i8], %"class.std::vector.14", i8, i8, [2 x i8], i32, i32, %"struct.open_spiel::y_game::Move", ptr, i8, [7 x i8] }>
%"class.open_spiel::State.base" = type <{ ptr, %"class.std::shared_ptr", i32, i32, %"class.std::vector.9", i32 }>
%"class.std::vector.9" = type { %"struct.std::_Vector_base.10" }
%"struct.std::_Vector_base.10" = type { %"struct.std::_Vector_base<open_spiel::State::PlayerAction, std::allocator<open_spiel::State::PlayerAction>>::_Vector_impl" }
%"struct.std::_Vector_base<open_spiel::State::PlayerAction, std::allocator<open_spiel::State::PlayerAction>>::_Vector_impl" = type { %"struct.std::_Vector_base<open_spiel::State::PlayerAction, std::allocator<open_spiel::State::PlayerAction>>::_Vector_impl_data" }
%"struct.std::_Vector_base<open_spiel::State::PlayerAction, std::allocator<open_spiel::State::PlayerAction>>::_Vector_impl_data" = type { ptr, ptr, ptr }
%"class.std::vector.14" = type { %"struct.std::_Vector_base.15" }
%"struct.std::_Vector_base.15" = type { %"struct.std::_Vector_base<open_spiel::y_game::YState::Cell, std::allocator<open_spiel::y_game::YState::Cell>>::_Vector_impl" }
%"struct.std::_Vector_base<open_spiel::y_game::YState::Cell, std::allocator<open_spiel::y_game::YState::Cell>>::_Vector_impl" = type { %"struct.std::_Vector_base<open_spiel::y_game::YState::Cell, std::allocator<open_spiel::y_game::YState::Cell>>::_Vector_impl_data" }
%"struct.std::_Vector_base<open_spiel::y_game::YState::Cell, std::allocator<open_spiel::y_game::YState::Cell>>::_Vector_impl_data" = type { ptr, ptr, ptr }

; Function Attrs: mustprogress nounwind uwtable
define linkonce_odr noundef nonnull align 2 dereferenceable(7) ptr @_ZNSt6vectorIN10open_spiel6y_game6YState4CellESaIS3_EEixEm(ptr noundef nonnull align 8 dereferenceable(24) %0, i64 noundef %1) #4 comdat align 2 {
  %3 = alloca ptr, align 8
  %4 = alloca i64, align 8
  store ptr %0, ptr %3, align 8
  store i64 %1, ptr %4, align 8
  %5 = load ptr, ptr %3, align 8
  %6 = getelementptr inbounds nuw %"struct.std::_Vector_base.15", ptr %5, i32 0, i32 0
  %7 = getelementptr inbounds nuw %"struct.std::_Vector_base<open_spiel::y_game::YState::Cell, std::allocator<open_spiel::y_game::YState::Cell>>::_Vector_impl_data", ptr %6, i32 0, i32 0
  %8 = load ptr, ptr %7, align 8
  %9 = load i64, ptr %4, align 8
  %10 = getelementptr inbounds %"struct.open_spiel::y_game::YState::Cell", ptr %8, i64 %9
  ret ptr %10
}

; Function Attrs: mustprogress nounwind uwtable
define noundef i32 @_ZN10open_spiel6y_game6YState15FindGroupLeaderEi(ptr noundef nonnull align 8 dereferenceable(113) %0, i32 noundef %1) #4 align 2 {
  %3 = alloca ptr, align 8
  %4 = alloca i32, align 4
  %5 = alloca i32, align 4
  store ptr %0, ptr %3, align 8
  store i32 %1, ptr %4, align 4
  %6 = load ptr, ptr %3, align 8
  %7 = getelementptr inbounds nuw %"class.open_spiel::y_game::YState", ptr %6, i32 0, i32 2
  %8 = load i32, ptr %4, align 4
  %9 = sext i32 %8 to i64
  %10 = call noundef nonnull align 2 dereferenceable(7) ptr @_ZNSt6vectorIN10open_spiel6y_game6YState4CellESaIS3_EEixEm(ptr noundef nonnull align 8 dereferenceable(24) %7, i64 noundef %9) #3
  %11 = getelementptr inbounds nuw %"struct.open_spiel::y_game::YState::Cell", ptr %10, i32 0, i32 2
  %12 = load i16, ptr %11, align 2
  %13 = zext i16 %12 to i32
  store i32 %13, ptr %5, align 4
  %14 = load i32, ptr %5, align 4
  %15 = load i32, ptr %4, align 4
  %16 = icmp ne i32 %14, %15
  br i1 %16, label %17, label %44

17:                                               ; preds = %2
  br label %18

18:                                               ; preds = %26, %17
  %19 = getelementptr inbounds nuw %"class.open_spiel::y_game::YState", ptr %6, i32 0, i32 2
  %20 = load i32, ptr %5, align 4
  %21 = sext i32 %20 to i64
  %22 = call noundef nonnull align 2 dereferenceable(7) ptr @_ZNSt6vectorIN10open_spiel6y_game6YState4CellESaIS3_EEixEm(ptr noundef nonnull align 8 dereferenceable(24) %19, i64 noundef %21) #3
  %23 = getelementptr inbounds nuw %"struct.open_spiel::y_game::YState::Cell", ptr %22, i32 0, i32 2
  %24 = load i16, ptr %23, align 2
  %25 = zext i16 %24 to i32
  store i32 %25, ptr %5, align 4
  br label %26

26:                                               ; preds = %18
  %27 = load i32, ptr %5, align 4
  %28 = getelementptr inbounds nuw %"class.open_spiel::y_game::YState", ptr %6, i32 0, i32 2
  %29 = load i32, ptr %5, align 4
  %30 = sext i32 %29 to i64
  %31 = call noundef nonnull align 2 dereferenceable(7) ptr @_ZNSt6vectorIN10open_spiel6y_game6YState4CellESaIS3_EEixEm(ptr noundef nonnull align 8 dereferenceable(24) %28, i64 noundef %30) #3
  %32 = getelementptr inbounds nuw %"struct.open_spiel::y_game::YState::Cell", ptr %31, i32 0, i32 2
  %33 = load i16, ptr %32, align 2
  %34 = zext i16 %33 to i32
  %35 = icmp ne i32 %27, %34
  br i1 %35, label %18, label %36, !llvm.loop !11

36:                                               ; preds = %26
  %37 = load i32, ptr %5, align 4
  %38 = trunc i32 %37 to i16
  %39 = getelementptr inbounds nuw %"class.open_spiel::y_game::YState", ptr %6, i32 0, i32 2
  %40 = load i32, ptr %4, align 4
  %41 = sext i32 %40 to i64
  %42 = call noundef nonnull align 2 dereferenceable(7) ptr @_ZNSt6vectorIN10open_spiel6y_game6YState4CellESaIS3_EEixEm(ptr noundef nonnull align 8 dereferenceable(24) %39, i64 noundef %41) #3
  %43 = getelementptr inbounds nuw %"struct.open_spiel::y_game::YState::Cell", ptr %42, i32 0, i32 2
  store i16 %38, ptr %43, align 2
  br label %44

44:                                               ; preds = %36, %2
  %45 = load i32, ptr %5, align 4
  ret i32 %45
}