; Function Attrs: mustprogress nofree norecurse nosync nounwind memory(readwrite, inaccessiblemem: none) uwtable
define noundef range(i32 0, 65536) i32 @_ZN10open_spiel6y_game6YState15FindGroupLeaderEi(ptr nocapture noundef nonnull readonly align 8 dereferenceable(113) %0, i32 noundef %1) local_unnamed_addr #9 align 2 {
  %3 = getelementptr inbounds nuw i8, ptr %0, i64 64
  %4 = sext i32 %1 to i64
  %5 = load ptr, ptr %3, align 8
  %6 = getelementptr inbounds %"struct.open_spiel::y_game::YState::Cell", ptr %5, i64 %4, i32 2
  %7 = load i16, ptr %6, align 2
  %8 = zext i16 %7 to i32
  %.not = icmp eq i32 %1, %8
  br i1 %.not, label %17, label %.preheader

.preheader:                                       ; preds = %2, %.preheader
  %.1 = phi i32 [ %12, %.preheader ], [ %8, %2 ]
  %9 = zext nneg i32 %.1 to i64
  %10 = getelementptr inbounds %"struct.open_spiel::y_game::YState::Cell", ptr %5, i64 %9, i32 2
  %11 = load i16, ptr %10, align 2
  %12 = zext i16 %11 to i32
  %13 = zext i16 %11 to i64
  %14 = getelementptr inbounds %"struct.open_spiel::y_game::YState::Cell", ptr %5, i64 %13, i32 2
  %15 = load i16, ptr %14, align 2
  %.not12 = icmp eq i16 %11, %15
  br i1 %.not12, label %16, label %.preheader, !llvm.loop !38

16:                                               ; preds = %.preheader
  store i16 %11, ptr %6, align 2
  br label %17

17:                                               ; preds = %16, %2
  %.0 = phi i32 [ %12, %16 ], [ %1, %2 ]
  ret i32 %.0
}